; Function Attrs: nounwind uwtable
define i32 @evp_pkey_ctx_set_params_strict(ptr noundef %0, ptr noundef %1) local_unnamed_addr #0 {
  %3 = icmp eq ptr %0, null
  %4 = icmp eq ptr %1, null
  %or.cond = or i1 %3, %4
  br i1 %or.cond, label %.loopexit, label %5

5:                                                ; preds = %2
  %6 = getelementptr inbounds nuw i8, ptr %0, i64 32
  %7 = load ptr, ptr %6, align 8, !tbaa !43
  %8 = icmp eq ptr %7, null
  br i1 %8, label %.thread, label %9

9:                                                ; preds = %5
  %10 = tail call ptr @EVP_PKEY_CTX_settable_params(ptr noundef nonnull %0)
  %11 = load ptr, ptr %1, align 8, !tbaa !93
  %.not.not19 = icmp eq ptr %11, null
  br i1 %.not.not19, label %.thread, label %.lr.ph

12:                                               ; preds = %.lr.ph
  %13 = getelementptr inbounds nuw i8, ptr %.01320, i64 40
  %14 = load ptr, ptr %13, align 8, !tbaa !93
  %.not.not = icmp eq ptr %14, null
  br i1 %.not.not, label %.thread, label %.lr.ph, !llvm.loop !95

.lr.ph:                                           ; preds = %9, %12
  %15 = phi ptr [ %14, %12 ], [ %11, %9 ]
  %.01320 = phi ptr [ %13, %12 ], [ %1, %9 ]
  %16 = tail call ptr @OSSL_PARAM_locate_const(ptr noundef %10, ptr noundef nonnull %15) #10
  %17 = icmp eq ptr %16, null
  br i1 %17, label %.loopexit, label %12

.thread:                                          ; preds = %12, %9, %5
  %18 = tail call i32 @EVP_PKEY_CTX_set_params(ptr noundef %0, ptr noundef %1)
  br label %.loopexit

.loopexit:                                        ; preds = %.lr.ph, %2, %.thread
  %.014 = phi i32 [ %18, %.thread ], [ 0, %2 ], [ -2, %.lr.ph ]
  ret i32 %.014
}